; Function Attrs: mustprogress nounwind uwtable
define hidden void @_ZN4LIEF5MachO22ChainedBindingInfoListD0Ev(ptr noundef nonnull align 8 dereferenceable(112) %0) unnamed_addr #2 align 2 personality ptr @__gxx_personality_v0 {
  store ptr getelementptr inbounds ({ [10 x ptr] }, ptr @_ZTVN4LIEF5MachO22ChainedBindingInfoListE, i64 0, i32 0, i64 2), ptr %0, align 8
  %2 = getelementptr inbounds i8, ptr %0, i64 88
  %3 = load ptr, ptr %2, align 8
  %.not.i.i.i.i = icmp eq ptr %3, null
  br i1 %.not.i.i.i.i, label %_ZN4LIEF5MachO22ChainedBindingInfoListD2Ev.exit, label %4

4:                                                ; preds = %1
  tail call void @_ZdlPv(ptr noundef nonnull %3) #6
  br label %_ZN4LIEF5MachO22ChainedBindingInfoListD2Ev.exit

_ZN4LIEF5MachO22ChainedBindingInfoListD2Ev.exit:  ; preds = %1, %4
  tail call void @_ZN4LIEF5MachO18ChainedBindingInfoD2Ev(ptr noundef nonnull align 8 dereferenceable(88) %0) #7
  tail call void @_ZdlPv(ptr noundef nonnull %0) #6
  ret void
}